; Function Attrs: nounwind uwtable
define range(i32 0, 59) i32 @Aig_CutSupportMinimize(ptr noundef readonly captures(none) %0, ptr noundef %1) local_unnamed_addr #0 {
  %3 = getelementptr inbounds nuw i8, ptr %1, i64 24
  %4 = getelementptr inbounds nuw i8, ptr %1, i64 22
  %5 = load i8, ptr %4, align 2, !tbaa !50
  %6 = sext i8 %5 to i64
  %7 = getelementptr inbounds i32, ptr %3, i64 %6
  %8 = getelementptr inbounds nuw i8, ptr %0, i64 20
  %9 = load i32, ptr %8, align 4, !tbaa !12
  %10 = tail call i32 @Kit_TruthSupport(ptr noundef nonnull %7, i32 noundef %9) #20
  %11 = and i32 %10, 1431655765
  %12 = lshr i32 %10, 1
  %13 = and i32 %12, 1431655765
  %14 = add nuw i32 %13, %11
  %15 = and i32 %14, 858993459
  %16 = lshr i32 %14, 2
  %17 = and i32 %16, 858993459
  %18 = add nuw nsw i32 %17, %15
  %19 = and i32 %18, 117901063
  %20 = lshr i32 %18, 4
  %21 = and i32 %20, 117901063
  %22 = add nuw nsw i32 %21, %19
  %23 = and i32 %22, 983055
  %24 = lshr i32 %22, 8
  %25 = and i32 %24, 983055
  %26 = add nuw nsw i32 %25, %23
  %27 = and i32 %26, 31
  %28 = lshr i32 %26, 16
  %29 = add nuw nsw i32 %27, %28
  %30 = getelementptr inbounds nuw i8, ptr %1, i64 23
  %31 = load i8, ptr %30, align 1, !tbaa !35
  %32 = sext i8 %31 to i32
  %33 = icmp eq i32 %29, %32
  br i1 %33, label %51, label %34

34:                                               ; preds = %2
  %35 = getelementptr inbounds nuw i8, ptr %0, i64 48
  %36 = load ptr, ptr %35, align 8, !tbaa !34
  %37 = load i32, ptr %8, align 4, !tbaa !12
  tail call void @Kit_TruthShrink(ptr noundef %36, ptr noundef nonnull %7, i32 noundef %29, i32 noundef %37, i32 noundef %10, i32 noundef 1) #20
  %38 = load i8, ptr %30, align 1, !tbaa !35
  %39 = icmp sgt i8 %38, 0
  br i1 %39, label %.lr.ph.preheader, label %._crit_edge

.lr.ph.preheader:                                 ; preds = %34
  %wide.trip.count = zext nneg i8 %38 to i64
  br label %.lr.ph

.lr.ph:                                           ; preds = %.lr.ph.preheader, %49
  %indvars.iv = phi i64 [ 0, %.lr.ph.preheader ], [ %indvars.iv.next, %49 ]
  %.028 = phi i32 [ 0, %.lr.ph.preheader ], [ %.1, %49 ]
  %40 = trunc nuw nsw i64 %indvars.iv to i32
  %41 = shl nuw i32 1, %40
  %42 = and i32 %41, %10
  %.not = icmp eq i32 %42, 0
  br i1 %.not, label %49, label %43

43:                                               ; preds = %.lr.ph
  %44 = getelementptr inbounds nuw [0 x i32], ptr %3, i64 0, i64 %indvars.iv
  %45 = load i32, ptr %44, align 4, !tbaa !39
  %46 = add nsw i32 %.028, 1
  %47 = sext i32 %.028 to i64
  %48 = getelementptr inbounds [0 x i32], ptr %3, i64 0, i64 %47
  store i32 %45, ptr %48, align 4, !tbaa !39
  br label %49

49:                                               ; preds = %.lr.ph, %43
  %.1 = phi i32 [ %46, %43 ], [ %.028, %.lr.ph ]
  %indvars.iv.next = add nuw nsw i64 %indvars.iv, 1
  %exitcond.not = icmp eq i64 %indvars.iv.next, %wide.trip.count
  br i1 %exitcond.not, label %._crit_edge, label %.lr.ph, !llvm.loop !55

._crit_edge:                                      ; preds = %49, %34
  %50 = trunc nuw nsw i32 %29 to i8
  store i8 %50, ptr %30, align 1, !tbaa !35
  br label %51

51:                                               ; preds = %2, %._crit_edge
  ret i32 %29
}